; Function Attrs: null_pointer_is_valid sspstrong uwtable
define internal fastcc range(i32 23, 25) i32 @dissect_cs_sec_rsp(ptr noundef %0, ptr noundef %1, i32 noundef range(i32 3, 5) %2) unnamed_addr #0 {
  %4 = load i32, ptr @hf_control_cs_sec_iv_p, align 4
  %5 = tail call ptr @proto_tree_add_item(ptr noundef %1, i32 noundef %4, ptr noundef %0, i32 noundef %2, i32 noundef 8, i32 noundef -2147483648)
  %6 = or disjoint i32 %2, 8
  %7 = load i32, ptr @hf_control_cs_sec_in_p, align 4
  %8 = tail call ptr @proto_tree_add_item(ptr noundef %1, i32 noundef %7, ptr noundef %0, i32 noundef %6, i32 noundef 4, i32 noundef -2147483648)
  %9 = add nuw nsw i32 %2, 12
  %10 = load i32, ptr @hf_control_cs_sec_pv_p, align 4
  %11 = tail call ptr @proto_tree_add_item(ptr noundef %1, i32 noundef %10, ptr noundef %0, i32 noundef %9, i32 noundef 8, i32 noundef -2147483648)
  %12 = add nuw nsw i32 %2, 20
  ret i32 %12
}